target datalayout = "e-m:e-p270:32:32-p271:32:32-p272:64:64-i64:64-i128:128-f80:128-n8:16:32:64-S128"
target triple = "x86_64-pc-linux-gnu"

%class.colvarproxy_system = type { ptr, %"class.std::__cxx11::basic_string", double, double, i8, double, double, double, double, double, i8, i32, %"class.colvarmodule::rvector", %"class.colvarmodule::rvector", %"class.colvarmodule::rvector", %"class.colvarmodule::rvector", %"class.colvarmodule::rvector", %"class.colvarmodule::rvector" }
%"class.std::__cxx11::basic_string" = type { %"struct.std::__cxx11::basic_string<char>::_Alloc_hider", i64, %union.anon }
%"struct.std::__cxx11::basic_string<char>::_Alloc_hider" = type { ptr }
%union.anon = type { i64, [8 x i8] }
%"class.colvarmodule::rvector" = type { double, double, double }
%"class.std::allocator" = type { i8 }

@.str.1 = private unnamed_addr constant [50 x i8] c"basic_string: construction from null is not valid\00", align 1
@.str.3 = private unnamed_addr constant [41 x i8] c"Error: unsupported boundary conditions.\0A\00", align 1

; Function Attrs: mustprogress nounwind uwtable
define linkonce_odr void @_ZN12colvarmodule7rvector3setEddd(ptr noundef nonnull align 8 dereferenceable(24) %0, double noundef %1, double noundef %2, double noundef %3) #0 comdat align 2 {
  %5 = alloca ptr, align 8
  %6 = alloca double, align 8
  %7 = alloca double, align 8
  %8 = alloca double, align 8
  store ptr %0, ptr %5, align 8
  store double %1, ptr %6, align 8
  store double %2, ptr %7, align 8
  store double %3, ptr %8, align 8
  %9 = load ptr, ptr %5, align 8
  %10 = load double, ptr %6, align 8
  %11 = getelementptr inbounds %"class.colvarmodule::rvector", ptr %9, i32 0, i32 0
  store double %10, ptr %11, align 8
  %12 = load double, ptr %7, align 8
  %13 = getelementptr inbounds %"class.colvarmodule::rvector", ptr %9, i32 0, i32 1
  store double %12, ptr %13, align 8
  %14 = load double, ptr %8, align 8
  %15 = getelementptr inbounds %"class.colvarmodule::rvector", ptr %9, i32 0, i32 2
  store double %14, ptr %15, align 8
  ret void
}

; Function Attrs: mustprogress nounwind uwtable
define linkonce_odr noundef double @_ZN12colvarmodule5floorERKd(ptr noundef nonnull align 8 dereferenceable(8) %0) #0 comdat align 2 {
  %2 = alloca ptr, align 8
  store ptr %0, ptr %2, align 8
  %3 = load ptr, ptr %2, align 8
  %4 = load double, ptr %3, align 8
  %5 = call double @llvm.floor.f64(double %4)
  ret double %5
}

; Function Attrs: mustprogress uwtable
define linkonce_odr void @_ZN12colvarmodule7rvectorC2Eddd(ptr noundef nonnull align 8 dereferenceable(24) %0, double noundef %1, double noundef %2, double noundef %3) unnamed_addr #1 comdat align 2 {
  %5 = alloca ptr, align 8
  %6 = alloca double, align 8
  %7 = alloca double, align 8
  %8 = alloca double, align 8
  store ptr %0, ptr %5, align 8
  store double %1, ptr %6, align 8
  store double %2, ptr %7, align 8
  store double %3, ptr %8, align 8
  %9 = load ptr, ptr %5, align 8
  %10 = load double, ptr %6, align 8
  %11 = load double, ptr %7, align 8
  %12 = load double, ptr %8, align 8
  call void @_ZN12colvarmodule7rvector3setEddd(ptr noundef nonnull align 8 dereferenceable(24) %9, double noundef %10, double noundef %11, double noundef %12)
  ret void
}

; Function Attrs: mustprogress nounwind uwtable
define linkonce_odr noundef i64 @_ZNSt11char_traitsIcE6lengthEPKc(ptr noundef %0) #0 comdat align 2 {
  %2 = alloca ptr, align 8
  store ptr %0, ptr %2, align 8
  %3 = load ptr, ptr %2, align 8
  %4 = call i64 @strlen(ptr noundef %3) #9
  ret i64 %4
}

; Function Attrs: mustprogress nounwind uwtable
define linkonce_odr void @_ZNSt7__cxx1112basic_stringIcSt11char_traitsIcESaIcEE12_Alloc_hiderD2Ev(ptr noundef nonnull align 8 dereferenceable(8) %0) unnamed_addr #0 comdat align 2 {
  %2 = alloca ptr, align 8
  store ptr %0, ptr %2, align 8
  %3 = load ptr, ptr %2, align 8
  call void @_ZNSaIcED2Ev(ptr noundef nonnull align 1 dereferenceable(1) %3) #9
  ret void
}

; Function Attrs: mustprogress uwtable
define linkonce_odr noundef i32 @_Z16round_to_integerd(double noundef %0) #1 comdat {
  %2 = alloca double, align 8
  %3 = alloca double, align 8
  store double %0, ptr %2, align 8
  %4 = load double, ptr %2, align 8
  %5 = fadd double %4, 5.000000e-01
  store double %5, ptr %3, align 8
  %6 = call noundef double @_ZN12colvarmodule5floorERKd(ptr noundef nonnull align 8 dereferenceable(8) %3)
  %7 = fptosi double %6 to i32
  ret i32 %7
}

; Function Attrs: mustprogress nounwind uwtable
define linkonce_odr noundef double @_ZmlRKN12colvarmodule7rvectorES2_(ptr noundef nonnull align 8 dereferenceable(24) %0, ptr noundef nonnull align 8 dereferenceable(24) %1) #0 comdat {
  %3 = alloca ptr, align 8
  %4 = alloca ptr, align 8
  store ptr %0, ptr %3, align 8
  store ptr %1, ptr %4, align 8
  %5 = load ptr, ptr %3, align 8
  %6 = getelementptr inbounds %"class.colvarmodule::rvector", ptr %5, i32 0, i32 0
  %7 = load double, ptr %6, align 8
  %8 = load ptr, ptr %4, align 8
  %9 = getelementptr inbounds %"class.colvarmodule::rvector", ptr %8, i32 0, i32 0
  %10 = load double, ptr %9, align 8
  %11 = load ptr, ptr %3, align 8
  %12 = getelementptr inbounds %"class.colvarmodule::rvector", ptr %11, i32 0, i32 1
  %13 = load double, ptr %12, align 8
  %14 = load ptr, ptr %4, align 8
  %15 = getelementptr inbounds %"class.colvarmodule::rvector", ptr %14, i32 0, i32 1
  %16 = load double, ptr %15, align 8
  %17 = fmul double %13, %16
  %18 = call double @llvm.fmuladd.f64(double %7, double %10, double %17)
  %19 = load ptr, ptr %3, align 8
  %20 = getelementptr inbounds %"class.colvarmodule::rvector", ptr %19, i32 0, i32 2
  %21 = load double, ptr %20, align 8
  %22 = load ptr, ptr %4, align 8
  %23 = getelementptr inbounds %"class.colvarmodule::rvector", ptr %22, i32 0, i32 2
  %24 = load double, ptr %23, align 8
  %25 = call double @llvm.fmuladd.f64(double %21, double %24, double %18)
  ret double %25
}

; Function Attrs: mustprogress uwtable
define linkonce_odr void @_ZmiRKN12colvarmodule7rvectorES2_(ptr dead_on_unwind noalias writable sret(%"class.colvarmodule::rvector") align 8 %0, ptr noundef nonnull align 8 dereferenceable(24) %1, ptr noundef nonnull align 8 dereferenceable(24) %2) #1 comdat {
  %4 = alloca ptr, align 8
  %5 = alloca ptr, align 8
  store ptr %1, ptr %4, align 8
  store ptr %2, ptr %5, align 8
  %6 = load ptr, ptr %4, align 8
  %7 = getelementptr inbounds %"class.colvarmodule::rvector", ptr %6, i32 0, i32 0
  %8 = load double, ptr %7, align 8
  %9 = load ptr, ptr %5, align 8
  %10 = getelementptr inbounds %"class.colvarmodule::rvector", ptr %9, i32 0, i32 0
  %11 = load double, ptr %10, align 8
  %12 = fsub double %8, %11
  %13 = load ptr, ptr %4, align 8
  %14 = getelementptr inbounds %"class.colvarmodule::rvector", ptr %13, i32 0, i32 1
  %15 = load double, ptr %14, align 8
  %16 = load ptr, ptr %5, align 8
  %17 = getelementptr inbounds %"class.colvarmodule::rvector", ptr %16, i32 0, i32 1
  %18 = load double, ptr %17, align 8
  %19 = fsub double %15, %18
  %20 = load ptr, ptr %4, align 8
  %21 = getelementptr inbounds %"class.colvarmodule::rvector", ptr %20, i32 0, i32 2
  %22 = load double, ptr %21, align 8
  %23 = load ptr, ptr %5, align 8
  %24 = getelementptr inbounds %"class.colvarmodule::rvector", ptr %23, i32 0, i32 2
  %25 = load double, ptr %24, align 8
  %26 = fsub double %22, %25
  call void @_ZN12colvarmodule7rvectorC2Eddd(ptr noundef nonnull align 8 dereferenceable(24) %0, double noundef %12, double noundef %19, double noundef %26)
  ret void
}

; Function Attrs: mustprogress uwtable
define linkonce_odr void @_ZNSt7__cxx1112basic_stringIcSt11char_traitsIcESaIcEEC2IS3_EEPKcRKS3_(ptr noundef nonnull align 8 dereferenceable(32) %0, ptr noundef %1, ptr noundef nonnull align 1 dereferenceable(1) %2) unnamed_addr #1 comdat align 2 personality ptr @__gxx_personality_v0 {
  %4 = alloca ptr, align 8
  %5 = alloca ptr, align 8
  %6 = alloca ptr, align 8
  %7 = alloca ptr, align 8
  %8 = alloca i32, align 4
  %9 = alloca ptr, align 8
  store ptr %0, ptr %4, align 8
  store ptr %1, ptr %5, align 8
  store ptr %2, ptr %6, align 8
  %10 = load ptr, ptr %4, align 8
  %11 = getelementptr inbounds %"class.std::__cxx11::basic_string", ptr %10, i32 0, i32 0
  %12 = call noundef ptr @_ZNSt7__cxx1112basic_stringIcSt11char_traitsIcESaIcEE13_M_local_dataEv(ptr noundef nonnull align 8 dereferenceable(32) %10)
  %13 = load ptr, ptr %6, align 8
  call void @_ZNSt7__cxx1112basic_stringIcSt11char_traitsIcESaIcEE12_Alloc_hiderC1EPcRKS3_(ptr noundef nonnull align 8 dereferenceable(8) %11, ptr noundef %12, ptr noundef nonnull align 1 dereferenceable(1) %13)
  %14 = load ptr, ptr %5, align 8
  %15 = icmp eq ptr %14, null
  br i1 %15, label %16, label %22

16:                                               ; preds = %3
  invoke void @_ZSt19__throw_logic_errorPKc(ptr noundef @.str.1) #11
          to label %17 unwind label %18

17:                                               ; preds = %16
  unreachable

18:                                               ; preds = %26, %22, %16
  %19 = landingpad { ptr, i32 }
          cleanup
  %20 = extractvalue { ptr, i32 } %19, 0
  store ptr %20, ptr %7, align 8
  %21 = extractvalue { ptr, i32 } %19, 1
  store i32 %21, ptr %8, align 4
  call void @_ZNSt7__cxx1112basic_stringIcSt11char_traitsIcESaIcEE12_Alloc_hiderD2Ev(ptr noundef nonnull align 8 dereferenceable(8) %11) #9
  br label %31

22:                                               ; preds = %3
  %23 = load ptr, ptr %5, align 8
  %24 = load ptr, ptr %5, align 8
  %25 = invoke noundef i64 @_ZNSt11char_traitsIcE6lengthEPKc(ptr noundef %24)
          to label %26 unwind label %18

26:                                               ; preds = %22
  %27 = getelementptr inbounds i8, ptr %23, i64 %25
  store ptr %27, ptr %9, align 8
  %28 = load ptr, ptr %5, align 8
  %29 = load ptr, ptr %9, align 8
  invoke void @_ZNSt7__cxx1112basic_stringIcSt11char_traitsIcESaIcEE12_M_constructIPKcEEvT_S8_St20forward_iterator_tag(ptr noundef nonnull align 8 dereferenceable(32) %10, ptr noundef %28, ptr noundef %29)
          to label %30 unwind label %18

30:                                               ; preds = %26
  ret void

31:                                               ; preds = %18
  %32 = load ptr, ptr %7, align 8
  %33 = load i32, ptr %8, align 4
  %34 = insertvalue { ptr, i32 } poison, ptr %32, 0
  %35 = insertvalue { ptr, i32 } %34, i32 %33, 1
  resume { ptr, i32 } %35
}

; Function Attrs: mustprogress uwtable
define void @_ZNK18colvarproxy_system17position_distanceERKN12colvarmodule7rvectorES3_(ptr dead_on_unwind noalias writable sret(%"class.colvarmodule::rvector") align 8 %0, ptr noundef nonnull align 8 dereferenceable(256) %1, ptr noundef nonnull align 8 dereferenceable(24) %2, ptr noundef nonnull align 8 dereferenceable(24) %3) unnamed_addr #1 align 2 personality ptr @__gxx_personality_v0 {
  %5 = alloca ptr, align 8
  %6 = alloca ptr, align 8
  %7 = alloca ptr, align 8
  %8 = alloca %"class.std::__cxx11::basic_string", align 8
  %9 = alloca %"class.std::allocator", align 1
  %10 = alloca ptr, align 8
  %11 = alloca i32, align 4
  %12 = alloca double, align 8
  %13 = alloca double, align 8
  %14 = alloca double, align 8
  store ptr %1, ptr %5, align 8
  store ptr %2, ptr %6, align 8
  store ptr %3, ptr %7, align 8
  %15 = load ptr, ptr %5, align 8
  %16 = getelementptr inbounds %class.colvarproxy_system, ptr %15, i32 0, i32 11
  %17 = load i32, ptr %16, align 4
  %18 = icmp eq i32 %17, 3
  br i1 %18, label %19, label %32

19:                                               ; preds = %4
  call void @_ZNSaIcEC1Ev(ptr noundef nonnull align 1 dereferenceable(1) %9) #9
  invoke void @_ZNSt7__cxx1112basic_stringIcSt11char_traitsIcESaIcEEC2IS3_EEPKcRKS3_(ptr noundef nonnull align 8 dereferenceable(32) %8, ptr noundef @.str.3, ptr noundef nonnull align 1 dereferenceable(1) %9)
          to label %20 unwind label %23

20:                                               ; preds = %19
  %21 = invoke noundef i32 @_ZN12colvarmodule5errorERKNSt7__cxx1112basic_stringIcSt11char_traitsIcESaIcEEEi(ptr noundef nonnull align 8 dereferenceable(32) %8, i32 noundef 4)
          to label %22 unwind label %27

22:                                               ; preds = %20
  call void @_ZNSt7__cxx1112basic_stringIcSt11char_traitsIcESaIcEED1Ev(ptr noundef nonnull align 8 dereferenceable(32) %8) #9
  call void @_ZNSaIcED1Ev(ptr noundef nonnull align 1 dereferenceable(1) %9) #9
  br label %32

23:                                               ; preds = %19
  %24 = landingpad { ptr, i32 }
          cleanup
  %25 = extractvalue { ptr, i32 } %24, 0
  store ptr %25, ptr %10, align 8
  %26 = extractvalue { ptr, i32 } %24, 1
  store i32 %26, ptr %11, align 4
  br label %31

27:                                               ; preds = %20
  %28 = landingpad { ptr, i32 }
          cleanup
  %29 = extractvalue { ptr, i32 } %28, 0
  store ptr %29, ptr %10, align 8
  %30 = extractvalue { ptr, i32 } %28, 1
  store i32 %30, ptr %11, align 4
  call void @_ZNSt7__cxx1112basic_stringIcSt11char_traitsIcESaIcEED1Ev(ptr noundef nonnull align 8 dereferenceable(32) %8) #9
  br label %31

31:                                               ; preds = %27, %23
  call void @_ZNSaIcED1Ev(ptr noundef nonnull align 1 dereferenceable(1) %9) #9
  br label %107

32:                                               ; preds = %22, %4
  %33 = load ptr, ptr %7, align 8
  %34 = load ptr, ptr %6, align 8
  call void @_ZmiRKN12colvarmodule7rvectorES2_(ptr dead_on_unwind writable sret(%"class.colvarmodule::rvector") align 8 %0, ptr noundef nonnull align 8 dereferenceable(24) %33, ptr noundef nonnull align 8 dereferenceable(24) %34)
  %35 = getelementptr inbounds %class.colvarproxy_system, ptr %15, i32 0, i32 11
  %36 = load i32, ptr %35, align 4
  %37 = icmp eq i32 %36, 0
  br i1 %37, label %38, label %39

38:                                               ; preds = %32
  br label %106

39:                                               ; preds = %32
  %40 = getelementptr inbounds %class.colvarproxy_system, ptr %15, i32 0, i32 15
  %41 = call noundef double @_ZmlRKN12colvarmodule7rvectorES2_(ptr noundef nonnull align 8 dereferenceable(24) %40, ptr noundef nonnull align 8 dereferenceable(24) %0)
  %42 = call noundef i32 @_Z16round_to_integerd(double noundef %41)
  %43 = sitofp i32 %42 to double
  store double %43, ptr %12, align 8
  %44 = getelementptr inbounds %class.colvarproxy_system, ptr %15, i32 0, i32 16
  %45 = call noundef double @_ZmlRKN12colvarmodule7rvectorES2_(ptr noundef nonnull align 8 dereferenceable(24) %44, ptr noundef nonnull align 8 dereferenceable(24) %0)
  %46 = call noundef i32 @_Z16round_to_integerd(double noundef %45)
  %47 = sitofp i32 %46 to double
  store double %47, ptr %13, align 8
  %48 = getelementptr inbounds %class.colvarproxy_system, ptr %15, i32 0, i32 17
  %49 = call noundef double @_ZmlRKN12colvarmodule7rvectorES2_(ptr noundef nonnull align 8 dereferenceable(24) %48, ptr noundef nonnull align 8 dereferenceable(24) %0)
  %50 = call noundef i32 @_Z16round_to_integerd(double noundef %49)
  %51 = sitofp i32 %50 to double
  store double %51, ptr %14, align 8
  %52 = load double, ptr %12, align 8
  %53 = getelementptr inbounds %class.colvarproxy_system, ptr %15, i32 0, i32 12
  %54 = getelementptr inbounds %"class.colvarmodule::rvector", ptr %53, i32 0, i32 0
  %55 = load double, ptr %54, align 8
  %56 = load double, ptr %13, align 8
  %57 = getelementptr inbounds %class.colvarproxy_system, ptr %15, i32 0, i32 13
  %58 = getelementptr inbounds %"class.colvarmodule::rvector", ptr %57, i32 0, i32 0
  %59 = load double, ptr %58, align 8
  %60 = fmul double %56, %59
  %61 = call double @llvm.fmuladd.f64(double %52, double %55, double %60)
  %62 = load double, ptr %14, align 8
  %63 = getelementptr inbounds %class.colvarproxy_system, ptr %15, i32 0, i32 14
  %64 = getelementptr inbounds %"class.colvarmodule::rvector", ptr %63, i32 0, i32 0
  %65 = load double, ptr %64, align 8
  %66 = call double @llvm.fmuladd.f64(double %62, double %65, double %61)
  %67 = getelementptr inbounds %"class.colvarmodule::rvector", ptr %0, i32 0, i32 0
  %68 = load double, ptr %67, align 8
  %69 = fsub double %68, %66
  store double %69, ptr %67, align 8
  %70 = load double, ptr %12, align 8
  %71 = getelementptr inbounds %class.colvarproxy_system, ptr %15, i32 0, i32 12
  %72 = getelementptr inbounds %"class.colvarmodule::rvector", ptr %71, i32 0, i32 1
  %73 = load double, ptr %72, align 8
  %74 = load double, ptr %13, align 8
  %75 = getelementptr inbounds %class.colvarproxy_system, ptr %15, i32 0, i32 13
  %76 = getelementptr inbounds %"class.colvarmodule::rvector", ptr %75, i32 0, i32 1
  %77 = load double, ptr %76, align 8
  %78 = fmul double %74, %77
  %79 = call double @llvm.fmuladd.f64(double %70, double %73, double %78)
  %80 = load double, ptr %14, align 8
  %81 = getelementptr inbounds %class.colvarproxy_system, ptr %15, i32 0, i32 14
  %82 = getelementptr inbounds %"class.colvarmodule::rvector", ptr %81, i32 0, i32 1
  %83 = load double, ptr %82, align 8
  %84 = call double @llvm.fmuladd.f64(double %80, double %83, double %79)
  %85 = getelementptr inbounds %"class.colvarmodule::rvector", ptr %0, i32 0, i32 1
  %86 = load double, ptr %85, align 8
  %87 = fsub double %86, %84
  store double %87, ptr %85, align 8
  %88 = load double, ptr %12, align 8
  %89 = getelementptr inbounds %class.colvarproxy_system, ptr %15, i32 0, i32 12
  %90 = getelementptr inbounds %"class.colvarmodule::rvector", ptr %89, i32 0, i32 2
  %91 = load double, ptr %90, align 8
  %92 = load double, ptr %13, align 8
  %93 = getelementptr inbounds %class.colvarproxy_system, ptr %15, i32 0, i32 13
  %94 = getelementptr inbounds %"class.colvarmodule::rvector", ptr %93, i32 0, i32 2
  %95 = load double, ptr %94, align 8
  %96 = fmul double %92, %95
  %97 = call double @llvm.fmuladd.f64(double %88, double %91, double %96)
  %98 = load double, ptr %14, align 8
  %99 = getelementptr inbounds %class.colvarproxy_system, ptr %15, i32 0, i32 14
  %100 = getelementptr inbounds %"class.colvarmodule::rvector", ptr %99, i32 0, i32 2
  %101 = load double, ptr %100, align 8
  %102 = call double @llvm.fmuladd.f64(double %98, double %101, double %97)
  %103 = getelementptr inbounds %"class.colvarmodule::rvector", ptr %0, i32 0, i32 2
  %104 = load double, ptr %103, align 8
  %105 = fsub double %104, %102
  store double %105, ptr %103, align 8
  br label %106

106:                                              ; preds = %39, %38
  ret void

107:                                              ; preds = %31
  %108 = load ptr, ptr %10, align 8
  %109 = load i32, ptr %11, align 4
  %110 = insertvalue { ptr, i32 } poison, ptr %108, 0
  %111 = insertvalue { ptr, i32 } %110, i32 %109, 1
  resume { ptr, i32 } %111
}