; Function Attrs: mustprogress uwtable
define void @_ZNK18colvarproxy_system17position_distanceERKN12colvarmodule7rvectorES3_(ptr dead_on_unwind noalias nocapture writable writeonly sret(%"class.colvarmodule::rvector") align 8 %0, ptr nocapture noundef nonnull readonly align 8 dereferenceable(256) %1, ptr nocapture noundef nonnull readonly align 8 dereferenceable(24) %2, ptr nocapture noundef nonnull readonly align 8 dereferenceable(24) %3) unnamed_addr #3 align 2 personality ptr @__gxx_personality_v0 {
  %5 = alloca %"class.std::__cxx11::basic_string", align 8
  %6 = alloca %"class.std::allocator", align 1
  %7 = getelementptr inbounds i8, ptr %1, i64 108
  %8 = load i32, ptr %7, align 4
  %9 = icmp eq i32 %8, 3
  br i1 %9, label %10, label %20

10:                                               ; preds = %4
  call void @_ZNSaIcEC1Ev(ptr noundef nonnull align 1 dereferenceable(1) %6) #12
  %11 = invoke noundef ptr @_ZNSt7__cxx1112basic_stringIcSt11char_traitsIcESaIcEE13_M_local_dataEv(ptr noundef nonnull align 8 dereferenceable(32) %5)
          to label %.noexc unwind label %16

.noexc:                                           ; preds = %10
  invoke void @_ZNSt7__cxx1112basic_stringIcSt11char_traitsIcESaIcEE12_Alloc_hiderC1EPcRKS3_(ptr noundef nonnull align 8 dereferenceable(8) %5, ptr noundef %11, ptr noundef nonnull align 1 dereferenceable(1) %6)
          to label %.noexc15 unwind label %16

.noexc15:                                         ; preds = %.noexc
  invoke void @_ZNSt7__cxx1112basic_stringIcSt11char_traitsIcESaIcEE12_M_constructIPKcEEvT_S8_St20forward_iterator_tag(ptr noundef nonnull align 8 dereferenceable(32) %5, ptr noundef nonnull @.str.3, ptr noundef nonnull getelementptr inbounds ([41 x i8], ptr @.str.3, i64 0, i64 40))
          to label %_ZNSt7__cxx1112basic_stringIcSt11char_traitsIcESaIcEEC2IS3_EEPKcRKS3_.exit unwind label %12

12:                                               ; preds = %.noexc15
  %13 = landingpad { ptr, i32 }
          cleanup
  call void @_ZNSaIcED2Ev(ptr noundef nonnull align 1 dereferenceable(1) %5) #12
  br label %.body

_ZNSt7__cxx1112basic_stringIcSt11char_traitsIcESaIcEEC2IS3_EEPKcRKS3_.exit: ; preds = %.noexc15
  %14 = invoke noundef i32 @_ZN12colvarmodule5errorERKNSt7__cxx1112basic_stringIcSt11char_traitsIcESaIcEEEi(ptr noundef nonnull align 8 dereferenceable(32) %5, i32 noundef 4)
          to label %15 unwind label %18

15:                                               ; preds = %_ZNSt7__cxx1112basic_stringIcSt11char_traitsIcESaIcEEC2IS3_EEPKcRKS3_.exit
  call void @_ZNSt7__cxx1112basic_stringIcSt11char_traitsIcESaIcEED1Ev(ptr noundef nonnull align 8 dereferenceable(32) %5) #12
  call void @_ZNSaIcED1Ev(ptr noundef nonnull align 1 dereferenceable(1) %6) #12
  %.pre = load i32, ptr %7, align 4
  br label %20

16:                                               ; preds = %.noexc, %10
  %17 = landingpad { ptr, i32 }
          cleanup
  br label %.body

18:                                               ; preds = %_ZNSt7__cxx1112basic_stringIcSt11char_traitsIcESaIcEEC2IS3_EEPKcRKS3_.exit
  %19 = landingpad { ptr, i32 }
          cleanup
  call void @_ZNSt7__cxx1112basic_stringIcSt11char_traitsIcESaIcEED1Ev(ptr noundef nonnull align 8 dereferenceable(32) %5) #12
  br label %.body

.body:                                            ; preds = %16, %12, %18
  %.pn = phi { ptr, i32 } [ %19, %18 ], [ %17, %16 ], [ %13, %12 ]
  call void @_ZNSaIcED1Ev(ptr noundef nonnull align 1 dereferenceable(1) %6) #12
  resume { ptr, i32 } %.pn

20:                                               ; preds = %15, %4
  %21 = phi i32 [ %.pre, %15 ], [ %8, %4 ]
  call void @llvm.experimental.noalias.scope.decl(metadata !5)
  %22 = load <2 x double>, ptr %3, align 8, !noalias !5
  %23 = load <2 x double>, ptr %2, align 8, !noalias !5
  %24 = fsub <2 x double> %22, %23
  %25 = getelementptr inbounds i8, ptr %3, i64 16
  %26 = load double, ptr %25, align 8, !noalias !5
  %27 = getelementptr inbounds i8, ptr %2, i64 16
  %28 = load double, ptr %27, align 8, !noalias !5
  %29 = fsub double %26, %28
  store <2 x double> %24, ptr %0, align 8, !alias.scope !5
  %30 = getelementptr inbounds i8, ptr %0, i64 16
  store double %29, ptr %30, align 8, !alias.scope !5
  %31 = icmp eq i32 %21, 0
  br i1 %31, label %100, label %32

32:                                               ; preds = %20
  %33 = getelementptr inbounds i8, ptr %1, i64 184
  %34 = load double, ptr %33, align 8
  %35 = getelementptr inbounds i8, ptr %1, i64 192
  %36 = load double, ptr %35, align 8
  %37 = extractelement <2 x double> %24, i64 1
  %38 = fmul double %37, %36
  %39 = extractelement <2 x double> %24, i64 0
  %40 = call double @llvm.fmuladd.f64(double %34, double %39, double %38)
  %41 = getelementptr inbounds i8, ptr %1, i64 200
  %42 = load double, ptr %41, align 8
  %43 = call noundef double @llvm.fmuladd.f64(double %42, double %29, double %40)
  %44 = fadd double %43, 5.000000e-01
  %45 = call noundef double @llvm.floor.f64(double %44)
  %46 = fptosi double %45 to i32
  %47 = sitofp i32 %46 to double
  %48 = getelementptr inbounds i8, ptr %1, i64 208
  %49 = load double, ptr %48, align 8
  %50 = getelementptr inbounds i8, ptr %1, i64 216
  %51 = load double, ptr %50, align 8
  %52 = fmul double %37, %51
  %53 = call double @llvm.fmuladd.f64(double %49, double %39, double %52)
  %54 = getelementptr inbounds i8, ptr %1, i64 224
  %55 = load double, ptr %54, align 8
  %56 = call noundef double @llvm.fmuladd.f64(double %55, double %29, double %53)
  %57 = fadd double %56, 5.000000e-01
  %58 = call noundef double @llvm.floor.f64(double %57)
  %59 = fptosi double %58 to i32
  %60 = sitofp i32 %59 to double
  %61 = getelementptr inbounds i8, ptr %1, i64 232
  %62 = load double, ptr %61, align 8
  %63 = getelementptr inbounds i8, ptr %1, i64 240
  %64 = load double, ptr %63, align 8
  %65 = fmul double %37, %64
  %66 = call double @llvm.fmuladd.f64(double %62, double %39, double %65)
  %67 = getelementptr inbounds i8, ptr %1, i64 248
  %68 = load double, ptr %67, align 8
  %69 = call noundef double @llvm.fmuladd.f64(double %68, double %29, double %66)
  %70 = fadd double %69, 5.000000e-01
  %71 = call noundef double @llvm.floor.f64(double %70)
  %72 = fptosi double %71 to i32
  %73 = sitofp i32 %72 to double
  %74 = getelementptr inbounds i8, ptr %1, i64 112
  %75 = getelementptr inbounds i8, ptr %1, i64 136
  %76 = getelementptr inbounds i8, ptr %1, i64 160
  %77 = load <2 x double>, ptr %74, align 8
  %78 = load <2 x double>, ptr %75, align 8
  %79 = insertelement <2 x double> poison, double %60, i64 0
  %80 = shufflevector <2 x double> %79, <2 x double> poison, <2 x i32> zeroinitializer
  %81 = fmul <2 x double> %78, %80
  %82 = insertelement <2 x double> poison, double %47, i64 0
  %83 = shufflevector <2 x double> %82, <2 x double> poison, <2 x i32> zeroinitializer
  %84 = call <2 x double> @llvm.fmuladd.v2f64(<2 x double> %83, <2 x double> %77, <2 x double> %81)
  %85 = load <2 x double>, ptr %76, align 8
  %86 = insertelement <2 x double> poison, double %73, i64 0
  %87 = shufflevector <2 x double> %86, <2 x double> poison, <2 x i32> zeroinitializer
  %88 = call <2 x double> @llvm.fmuladd.v2f64(<2 x double> %87, <2 x double> %85, <2 x double> %84)
  %89 = fsub <2 x double> %24, %88
  store <2 x double> %89, ptr %0, align 8
  %90 = getelementptr inbounds i8, ptr %1, i64 128
  %91 = load double, ptr %90, align 8
  %92 = getelementptr inbounds i8, ptr %1, i64 152
  %93 = load double, ptr %92, align 8
  %94 = fmul double %93, %60
  %95 = call double @llvm.fmuladd.f64(double %47, double %91, double %94)
  %96 = getelementptr inbounds i8, ptr %1, i64 176
  %97 = load double, ptr %96, align 8
  %98 = call double @llvm.fmuladd.f64(double %73, double %97, double %95)
  %99 = fsub double %29, %98
  store double %99, ptr %30, align 8
  br label %100

100:                                              ; preds = %20, %32
  ret void
}